target datalayout = "e-m:e-p270:32:32-p271:32:32-p272:64:64-i64:64-i128:128-f80:128-n8:16:32:64-S128"
target triple = "x86_64-pc-linux-gnu"

%"class.cv::ximgproc::GuidedFilterImpl" = type <{ %"class.cv::ximgproc::GuidedFilter", i32, [4 x i8], double, double, i32, i32, i32, i32, %"class.std::vector", %"class.std::vector", %"class.std::vector", %"struct.cv::ximgproc::SymArray2D", i32, [4 x i8] }>
%"class.cv::ximgproc::GuidedFilter" = type { %"class.cv::Algorithm" }
%"class.cv::Algorithm" = type { ptr }
%"class.std::vector" = type { %"struct.std::_Vector_base" }
%"struct.std::_Vector_base" = type { %"struct.std::_Vector_base<cv::Mat, std::allocator<cv::Mat>>::_Vector_impl" }
%"struct.std::_Vector_base<cv::Mat, std::allocator<cv::Mat>>::_Vector_impl" = type { %"struct.std::_Vector_base<cv::Mat, std::allocator<cv::Mat>>::_Vector_impl_data" }
%"struct.std::_Vector_base<cv::Mat, std::allocator<cv::Mat>>::_Vector_impl_data" = type { ptr, ptr, ptr }
%"struct.cv::ximgproc::SymArray2D" = type <{ %"class.std::vector", i32, [4 x i8] }>

; Function Attrs: mustprogress nounwind uwtable
define hidden void @_ZN2cv8ximgproc16GuidedFilterImpl14getWalkPatternEiRiS2_(ptr noundef nonnull align 8 dereferenceable(156) %0, i32 noundef %1, ptr noundef nonnull align 4 dereferenceable(4) %2, ptr noundef nonnull align 4 dereferenceable(4) %3) #6 align 2 {
  %5 = alloca ptr, align 8
  %6 = alloca i32, align 4
  %7 = alloca ptr, align 8
  %8 = alloca ptr, align 8
  store ptr %0, ptr %5, align 8, !tbaa !39
  store i32 %1, ptr %6, align 4, !tbaa !15
  store ptr %2, ptr %7, align 8, !tbaa !40
  store ptr %3, ptr %8, align 8, !tbaa !40
  %9 = load ptr, ptr %5, align 8
  %10 = getelementptr inbounds nuw %"class.cv::ximgproc::GuidedFilterImpl", ptr %9, i32 0, i32 13
  %11 = load i32, ptr %10, align 8, !tbaa !42
  %12 = sub nsw i32 %11, 1
  %13 = mul nsw i32 12, %12
  %14 = load i32, ptr %6, align 4, !tbaa !15
  %15 = add nsw i32 %13, %14
  %16 = sext i32 %15 to i64
  %17 = getelementptr inbounds [36 x i32], ptr @_ZZN2cv8ximgproc16GuidedFilterImpl14getWalkPatternEiRiS2_E5wdata, i64 0, i64 %16
  %18 = load i32, ptr %17, align 4, !tbaa !15
  %19 = load ptr, ptr %7, align 8, !tbaa !40
  store i32 %18, ptr %19, align 4, !tbaa !15
  %20 = getelementptr inbounds nuw %"class.cv::ximgproc::GuidedFilterImpl", ptr %9, i32 0, i32 13
  %21 = load i32, ptr %20, align 8, !tbaa !42
  %22 = sub nsw i32 %21, 1
  %23 = mul nsw i32 12, %22
  %24 = add nsw i32 %23, 6
  %25 = load i32, ptr %6, align 4, !tbaa !15
  %26 = add nsw i32 %24, %25
  %27 = sext i32 %26 to i64
  %28 = getelementptr inbounds [36 x i32], ptr @_ZZN2cv8ximgproc16GuidedFilterImpl14getWalkPatternEiRiS2_E5wdata, i64 0, i64 %27
  %29 = load i32, ptr %28, align 4, !tbaa !15
  %30 = load ptr, ptr %8, align 8, !tbaa !40
  store i32 %29, ptr %30, align 4, !tbaa !15
  ret void
}