; Function Attrs: mustprogress nofree norecurse nosync nounwind willreturn memory(argmem: readwrite) uwtable
define hidden void @_ZN2cv8ximgproc16GuidedFilterImpl14getWalkPatternEiRiS2_(ptr noundef nonnull readonly align 8 captures(none) dereferenceable(156) %0, i32 noundef %1, ptr noundef nonnull writeonly align 4 captures(none) dereferenceable(4) initializes((0, 4)) %2, ptr noundef nonnull writeonly align 4 captures(none) dereferenceable(4) initializes((0, 4)) %3) local_unnamed_addr #5 align 2 {
  %5 = getelementptr inbounds nuw i8, ptr %0, i64 152
  %6 = load i32, ptr %5, align 8, !tbaa !23
  %7 = mul i32 %6, 12
  %8 = add i32 %1, -12
  %9 = add i32 %8, %7
  %10 = sext i32 %9 to i64
  %11 = getelementptr inbounds [36 x i32], ptr @_ZZN2cv8ximgproc16GuidedFilterImpl14getWalkPatternEiRiS2_E5wdata, i64 0, i64 %10
  %12 = load i32, ptr %11, align 4, !tbaa !28
  store i32 %12, ptr %2, align 4, !tbaa !28
  %13 = load i32, ptr %5, align 8, !tbaa !23
  %14 = mul i32 %13, 12
  %15 = add i32 %1, -6
  %16 = add i32 %15, %14
  %17 = sext i32 %16 to i64
  %18 = getelementptr inbounds [36 x i32], ptr @_ZZN2cv8ximgproc16GuidedFilterImpl14getWalkPatternEiRiS2_E5wdata, i64 0, i64 %17
  %19 = load i32, ptr %18, align 4, !tbaa !28
  store i32 %19, ptr %3, align 4, !tbaa !28
  ret void
}